target datalayout = "e-m:e-p270:32:32-p271:32:32-p272:64:64-i64:64-i128:128-f80:128-n8:16:32:64-S128"
target triple = "x86_64-pc-linux-gnu"

%"struct.Luau::CodeGen::A64::RegisterA64" = type { i8 }
%"struct.Luau::CodeGen::A64::IrRegAllocA64" = type <{ ptr, ptr, %"struct.Luau::CodeGen::A64::IrRegAllocA64::Set", %"struct.Luau::CodeGen::A64::IrRegAllocA64::Set", %"class.std::vector", i32, i8, [3 x i8] }>
%"struct.Luau::CodeGen::A64::IrRegAllocA64::Set" = type { i32, i32, i32, [32 x i32] }
%"class.std::vector" = type { %"struct.std::_Vector_base" }
%"struct.std::_Vector_base" = type { %"struct.std::_Vector_base<Luau::CodeGen::A64::IrRegAllocA64::Spill, std::allocator<Luau::CodeGen::A64::IrRegAllocA64::Spill>>::_Vector_impl" }
%"struct.std::_Vector_base<Luau::CodeGen::A64::IrRegAllocA64::Spill, std::allocator<Luau::CodeGen::A64::IrRegAllocA64::Spill>>::_Vector_impl" = type { %"struct.std::_Vector_base<Luau::CodeGen::A64::IrRegAllocA64::Spill, std::allocator<Luau::CodeGen::A64::IrRegAllocA64::Spill>>::_Vector_impl_data" }
%"struct.std::_Vector_base<Luau::CodeGen::A64::IrRegAllocA64::Spill, std::allocator<Luau::CodeGen::A64::IrRegAllocA64::Spill>>::_Vector_impl_data" = type { ptr, ptr, ptr }
%"struct.Luau::CodeGen::IrOp" = type { i32 }
%"struct.Luau::CodeGen::IrInst" = type <{ i8, [3 x i8], %"struct.Luau::CodeGen::IrOp", %"struct.Luau::CodeGen::IrOp", %"struct.Luau::CodeGen::IrOp", %"struct.Luau::CodeGen::IrOp", %"struct.Luau::CodeGen::IrOp", %"struct.Luau::CodeGen::IrOp", %"struct.Luau::CodeGen::IrOp", i32, i16, %"struct.Luau::CodeGen::X64::RegisterX64", %"struct.Luau::CodeGen::A64::RegisterA64", i8, i8, i8, i8 }>
%"struct.Luau::CodeGen::X64::RegisterX64" = type { i8 }

@_ZN4Luau7CodeGen3A64L5noregE = internal constant %"struct.Luau::CodeGen::A64::RegisterA64" zeroinitializer, align 1

; Function Attrs: mustprogress nounwind uwtable
define dso_local noundef nonnull align 4 dereferenceable(140) ptr @_ZN4Luau7CodeGen3A6413IrRegAllocA646getSetENS1_7KindA64E(ptr noundef nonnull align 8 dereferenceable(325) %0, i8 noundef zeroext %1) #1 align 2 {
  %3 = alloca ptr, align 8
  %4 = alloca ptr, align 8
  %5 = alloca i8, align 1
  store ptr %0, ptr %4, align 8, !tbaa !20
  store i8 %1, ptr %5, align 1, !tbaa !58
  %6 = load ptr, ptr %4, align 8
  %7 = load i8, ptr %5, align 1, !tbaa !58
  switch i8 %7, label %12 [
    i8 2, label %8
    i8 1, label %8
    i8 3, label %10
    i8 4, label %10
    i8 5, label %10
  ]

8:                                                ; preds = %2, %2
  %9 = getelementptr inbounds nuw %"struct.Luau::CodeGen::A64::IrRegAllocA64", ptr %6, i32 0, i32 2
  store ptr %9, ptr %3, align 8
  br label %13

10:                                               ; preds = %2, %2, %2
  %11 = getelementptr inbounds nuw %"struct.Luau::CodeGen::A64::IrRegAllocA64", ptr %6, i32 0, i32 3
  store ptr %11, ptr %3, align 8
  br label %13

12:                                               ; preds = %2
  unreachable

13:                                               ; preds = %10, %8
  %14 = load ptr, ptr %3, align 8
  ret ptr %14
}

; Function Attrs: mustprogress uwtable
define dso_local void @_ZN4Luau7CodeGen3A6413IrRegAllocA647freeRegENS1_11RegisterA64E(ptr noundef nonnull align 8 dereferenceable(325) %0, i8 %1) #2 align 2 {
  %3 = alloca %"struct.Luau::CodeGen::A64::RegisterA64", align 1
  %4 = alloca ptr, align 8
  %5 = alloca ptr, align 8
  %6 = getelementptr inbounds nuw %"struct.Luau::CodeGen::A64::RegisterA64", ptr %3, i32 0, i32 0
  store i8 %1, ptr %6, align 1
  store ptr %0, ptr %4, align 8, !tbaa !20
  %7 = load ptr, ptr %4, align 8
  call void @llvm.lifetime.start.p0(i64 8, ptr %5) #16
  %8 = load i8, ptr %3, align 1
  %9 = and i8 %8, 7
  %10 = call noundef nonnull align 4 dereferenceable(140) ptr @_ZN4Luau7CodeGen3A6413IrRegAllocA646getSetENS1_7KindA64E(ptr noundef nonnull align 8 dereferenceable(325) %7, i8 noundef zeroext %9)
  store ptr %10, ptr %5, align 8, !tbaa !41
  %11 = load i8, ptr %3, align 1
  %12 = lshr i8 %11, 3
  %13 = zext i8 %12 to i32
  %14 = shl i32 1, %13
  %15 = load ptr, ptr %5, align 8, !tbaa !41
  %16 = getelementptr inbounds nuw %"struct.Luau::CodeGen::A64::IrRegAllocA64::Set", ptr %15, i32 0, i32 1
  %17 = load i32, ptr %16, align 4, !tbaa !51
  %18 = or i32 %17, %14
  store i32 %18, ptr %16, align 4, !tbaa !51
  %19 = load ptr, ptr %5, align 8, !tbaa !41
  %20 = getelementptr inbounds nuw %"struct.Luau::CodeGen::A64::IrRegAllocA64::Set", ptr %19, i32 0, i32 3
  %21 = load i8, ptr %3, align 1
  %22 = lshr i8 %21, 3
  %23 = zext i8 %22 to i64
  %24 = getelementptr inbounds nuw [32 x i32], ptr %20, i64 0, i64 %23
  store i32 -1, ptr %24, align 4, !tbaa !43
  call void @llvm.lifetime.end.p0(i64 8, ptr %5) #16
  ret void
}

; Function Attrs: mustprogress nounwind uwtable
define linkonce_odr dso_local noundef zeroext i1 @_ZNK4Luau7CodeGen3A6411RegisterA64eqES2_(ptr noundef nonnull align 1 dereferenceable(1) %0, i8 %1) #1 comdat align 2 {
  %3 = alloca %"struct.Luau::CodeGen::A64::RegisterA64", align 1
  %4 = alloca ptr, align 8
  %5 = getelementptr inbounds nuw %"struct.Luau::CodeGen::A64::RegisterA64", ptr %3, i32 0, i32 0
  store i8 %1, ptr %5, align 1
  store ptr %0, ptr %4, align 8, !tbaa !89
  %6 = load ptr, ptr %4, align 8
  %7 = load i8, ptr %6, align 1
  %8 = and i8 %7, 7
  %9 = load i8, ptr %3, align 1
  %10 = and i8 %9, 7
  %11 = icmp eq i8 %8, %10
  br i1 %11, label %12, label %20

12:                                               ; preds = %2
  %13 = load i8, ptr %6, align 1
  %14 = lshr i8 %13, 3
  %15 = zext i8 %14 to i32
  %16 = load i8, ptr %3, align 1
  %17 = lshr i8 %16, 3
  %18 = zext i8 %17 to i32
  %19 = icmp eq i32 %15, %18
  br label %20

20:                                               ; preds = %12, %2
  %21 = phi i1 [ false, %2 ], [ %19, %12 ]
  ret i1 %21
}

; Function Attrs: mustprogress uwtable
define dso_local void @_ZN4Luau7CodeGen3A6413IrRegAllocA6414freeLastUseRegERNS0_6IrInstEj(ptr noundef nonnull align 8 dereferenceable(325) %0, ptr noundef nonnull align 4 dereferenceable(43) %1, i32 noundef %2) #2 align 2 {
  %4 = alloca ptr, align 8
  %5 = alloca ptr, align 8
  %6 = alloca i32, align 4
  %7 = alloca %"struct.Luau::CodeGen::A64::RegisterA64", align 1
  %8 = alloca %"struct.Luau::CodeGen::A64::RegisterA64", align 1
  store ptr %0, ptr %4, align 8, !tbaa !20
  store ptr %1, ptr %5, align 8, !tbaa !69
  store i32 %2, ptr %6, align 4, !tbaa !43
  %9 = load ptr, ptr %4, align 8
  %10 = load ptr, ptr %5, align 8, !tbaa !69
  %11 = getelementptr inbounds nuw %"struct.Luau::CodeGen::IrInst", ptr %10, i32 0, i32 9
  %12 = load i32, ptr %11, align 4, !tbaa !71
  %13 = load i32, ptr %6, align 4, !tbaa !43
  %14 = icmp eq i32 %12, %13
  br i1 %14, label %15, label %34

15:                                               ; preds = %3
  %16 = load ptr, ptr %5, align 8, !tbaa !69
  %17 = getelementptr inbounds nuw %"struct.Luau::CodeGen::IrInst", ptr %16, i32 0, i32 13
  %18 = load i8, ptr %17, align 4, !tbaa !80, !range !13, !noundef !14
  %19 = trunc i8 %18 to i1
  br i1 %19, label %34, label %20

20:                                               ; preds = %15
  %21 = load ptr, ptr %5, align 8, !tbaa !69
  %22 = getelementptr inbounds nuw %"struct.Luau::CodeGen::IrInst", ptr %21, i32 0, i32 12
  call void @llvm.memcpy.p0.p0.i64(ptr align 1 %7, ptr align 1 @_ZN4Luau7CodeGen3A64L5noregE, i64 1, i1 false), !tbaa.struct !81
  %23 = getelementptr inbounds nuw %"struct.Luau::CodeGen::A64::RegisterA64", ptr %7, i32 0, i32 0
  %24 = load i8, ptr %23, align 1
  %25 = call noundef zeroext i1 @_ZNK4Luau7CodeGen3A6411RegisterA64eqES2_(ptr noundef nonnull align 1 dereferenceable(1) %22, i8 %24)
  br i1 %25, label %26, label %27

26:                                               ; preds = %20
  br label %34

27:                                               ; preds = %20
  %28 = load ptr, ptr %5, align 8, !tbaa !69
  %29 = getelementptr inbounds nuw %"struct.Luau::CodeGen::IrInst", ptr %28, i32 0, i32 12
  call void @llvm.memcpy.p0.p0.i64(ptr align 1 %8, ptr align 1 %29, i64 1, i1 false), !tbaa.struct !81
  %30 = getelementptr inbounds nuw %"struct.Luau::CodeGen::A64::RegisterA64", ptr %8, i32 0, i32 0
  %31 = load i8, ptr %30, align 1
  call void @_ZN4Luau7CodeGen3A6413IrRegAllocA647freeRegENS1_11RegisterA64E(ptr noundef nonnull align 8 dereferenceable(325) %9, i8 %31)
  %32 = load ptr, ptr %5, align 8, !tbaa !69
  %33 = getelementptr inbounds nuw %"struct.Luau::CodeGen::IrInst", ptr %32, i32 0, i32 12
  call void @llvm.memcpy.p0.p0.i64(ptr align 1 %33, ptr align 1 @_ZN4Luau7CodeGen3A64L5noregE, i64 1, i1 false), !tbaa.struct !81
  br label %34

34:                                               ; preds = %26, %27, %15, %3
  ret void
}