; Function Attrs: mustprogress nofree norecurse nosync nounwind willreturn memory(argmem: readwrite) uwtable
define dso_local void @_ZN4Luau7CodeGen3A6413IrRegAllocA6414freeLastUseRegERNS0_6IrInstEj(ptr noundef nonnull align 8 captures(none) dereferenceable(325) %0, ptr noundef nonnull align 4 captures(none) dereferenceable(43) %1, i32 noundef %2) local_unnamed_addr #5 align 2 {
  %4 = getelementptr inbounds nuw i8, ptr %1, i64 32
  %5 = load i32, ptr %4, align 4, !tbaa !42
  %6 = icmp eq i32 %5, %2
  br i1 %6, label %7, label %26

7:                                                ; preds = %3
  %8 = getelementptr inbounds nuw i8, ptr %1, i64 40
  %9 = load i8, ptr %8, align 4, !tbaa !52, !range !35, !noundef !36
  %10 = trunc nuw i8 %9 to i1
  br i1 %10, label %26, label %11

11:                                               ; preds = %7
  %12 = getelementptr inbounds nuw i8, ptr %1, i64 39
  %13 = load i8, ptr %12, align 1
  %14 = icmp eq i8 %13, 0
  br i1 %14, label %26, label %15

15:                                               ; preds = %11
  %16 = and i8 %13, 7
  %.off.i.i = add nsw i8 %16, -1
  %switch.i.i = icmp ult i8 %.off.i.i, 2
  %.0.v.i.i = select i1 %switch.i.i, i64 16, i64 156
  %.0.i.i = getelementptr inbounds nuw i8, ptr %0, i64 %.0.v.i.i
  %17 = lshr i8 %13, 3
  %18 = zext nneg i8 %17 to i32
  %19 = shl nuw i32 1, %18
  %20 = getelementptr inbounds nuw i8, ptr %.0.i.i, i64 4
  %21 = load i32, ptr %20, align 4, !tbaa !21
  %22 = or i32 %21, %19
  store i32 %22, ptr %20, align 4, !tbaa !21
  %23 = getelementptr inbounds nuw i8, ptr %.0.i.i, i64 12
  %24 = zext nneg i8 %17 to i64
  %25 = getelementptr inbounds nuw [32 x i32], ptr %23, i64 0, i64 %24
  store i32 -1, ptr %25, align 4, !tbaa !37
  store i8 0, ptr %12, align 1, !tbaa !38
  br label %26

26:                                               ; preds = %11, %15, %7, %3
  ret void
}